target datalayout = "e-m:e-p270:32:32-p271:32:32-p272:64:64-i64:64-i128:128-f80:128-n8:16:32:64-S128"
target triple = "x86_64-pc-linux-gnu"

%"class.mitsuba::MemoryStream" = type <{ %"class.mitsuba::Stream", i64, i64, i64, i8, [7 x i8], ptr, i8, [7 x i8] }>
%"class.mitsuba::Stream" = type { %"class.mitsuba::Object.base", i32 }
%"class.mitsuba::Object.base" = type <{ ptr, %"struct.std::__1::atomic" }>
%"struct.std::__1::atomic" = type { %"struct.std::__1::__atomic_base" }
%"struct.std::__1::__atomic_base" = type { %"struct.std::__1::__atomic_base.0" }
%"struct.std::__1::__atomic_base.0" = type { %"struct.std::__1::__cxx_atomic_impl" }
%"struct.std::__1::__cxx_atomic_impl" = type { %"struct.std::__1::__cxx_atomic_base_impl" }
%"struct.std::__1::__cxx_atomic_base_impl" = type { i32 }

; Function Attrs: mustprogress uwtable
define void @_ZN7mitsuba12MemoryStream8truncateEm(ptr noundef nonnull align 8 dereferenceable(57) %0, i64 noundef %1) unnamed_addr #0 align 2 {
  %3 = alloca ptr, align 8
  %4 = alloca i64, align 8
  store ptr %0, ptr %3, align 8
  store i64 %1, ptr %4, align 8
  %5 = load ptr, ptr %3, align 8
  %6 = load i64, ptr %4, align 8
  %7 = getelementptr inbounds %"class.mitsuba::MemoryStream", ptr %5, i32 0, i32 2
  store i64 %6, ptr %7, align 8
  %8 = load i64, ptr %4, align 8
  call void @_ZN7mitsuba12MemoryStream6resizeEm(ptr noundef nonnull align 8 dereferenceable(57) %5, i64 noundef %8)
  %9 = getelementptr inbounds %"class.mitsuba::MemoryStream", ptr %5, i32 0, i32 3
  %10 = load i64, ptr %9, align 8
  %11 = getelementptr inbounds %"class.mitsuba::MemoryStream", ptr %5, i32 0, i32 2
  %12 = load i64, ptr %11, align 8
  %13 = icmp ugt i64 %10, %12
  br i1 %13, label %14, label %18

14:                                               ; preds = %2
  %15 = getelementptr inbounds %"class.mitsuba::MemoryStream", ptr %5, i32 0, i32 2
  %16 = load i64, ptr %15, align 8
  %17 = getelementptr inbounds %"class.mitsuba::MemoryStream", ptr %5, i32 0, i32 3
  store i64 %16, ptr %17, align 8
  br label %18

18:                                               ; preds = %14, %2
  ret void
}