; Function Attrs: mustprogress uwtable
define void @_ZN7mitsuba12MemoryStream8truncateEm(ptr nocapture noundef nonnull align 8 dereferenceable(57) %0, i64 noundef %1) unnamed_addr #0 align 2 {
  %3 = getelementptr inbounds i8, ptr %0, i64 24
  store i64 %1, ptr %3, align 8
  tail call void @_ZN7mitsuba12MemoryStream6resizeEm(ptr noundef nonnull align 8 dereferenceable(57) %0, i64 noundef %1)
  %4 = getelementptr inbounds i8, ptr %0, i64 32
  %5 = load i64, ptr %4, align 8
  %6 = load i64, ptr %3, align 8
  %7 = icmp ugt i64 %5, %6
  br i1 %7, label %8, label %9

8:                                                ; preds = %2
  store i64 %6, ptr %4, align 8
  br label %9

9:                                                ; preds = %8, %2
  ret void
}